target datalayout = "e-m:e-p270:32:32-p271:32:32-p272:64:64-i64:64-i128:128-f80:128-n8:16:32:64-S128"
target triple = "x86_64-pc-linux-gnu"

%struct.TclStubs = type { i32, ptr, ptr, ptr, ptr, ptr, ptr, ptr, ptr, ptr, ptr, ptr, ptr, ptr, ptr, ptr, ptr, ptr, ptr, ptr, ptr, ptr, ptr, ptr, ptr, ptr, ptr, ptr, ptr, ptr, ptr, ptr, ptr, ptr, ptr, ptr, ptr, ptr, ptr, ptr, ptr, ptr, ptr, ptr, ptr, ptr, ptr, ptr, ptr, ptr, ptr, ptr, ptr, ptr, ptr, ptr, ptr, ptr, ptr, ptr, ptr, ptr, ptr, ptr, ptr, ptr, ptr, ptr, ptr, ptr, ptr, ptr, ptr, ptr, ptr, ptr, ptr, ptr, ptr, ptr, ptr, ptr, ptr, ptr, ptr, ptr, ptr, ptr, ptr, ptr, ptr, ptr, ptr, ptr, ptr, ptr, ptr, ptr, ptr, ptr, ptr, ptr, ptr, ptr, ptr, ptr, ptr, ptr, ptr, ptr, ptr, ptr, ptr, ptr, ptr, ptr, ptr, ptr, ptr, ptr, ptr, ptr, ptr, ptr, ptr, ptr, ptr, ptr, ptr, ptr, ptr, ptr, ptr, ptr, ptr, ptr, ptr, ptr, ptr, ptr, ptr, ptr, ptr, ptr, ptr, ptr, ptr, ptr, ptr, ptr, ptr, ptr, ptr, ptr, ptr, ptr, ptr, ptr, ptr, ptr, ptr, ptr, ptr, ptr, ptr, ptr, ptr, ptr, ptr, ptr, ptr, ptr, ptr, ptr, ptr, ptr, ptr, ptr, ptr, ptr, ptr, ptr, ptr, ptr, ptr, ptr, ptr, ptr, ptr, ptr, ptr, ptr, ptr, ptr, ptr, ptr, ptr, ptr, ptr, ptr, ptr, ptr, ptr, ptr, ptr, ptr, ptr, ptr, ptr, ptr, ptr, ptr, ptr, ptr, ptr, ptr, ptr, ptr, ptr, ptr, ptr, ptr, ptr, ptr, ptr, ptr, ptr, ptr, ptr, ptr, ptr, ptr, ptr, ptr, ptr, ptr, ptr, ptr, ptr, ptr, ptr, ptr, ptr, ptr, ptr, ptr, ptr, ptr, ptr, ptr, ptr, ptr, ptr, ptr, ptr, ptr, ptr, ptr, ptr, ptr, ptr, ptr, ptr, ptr, ptr, ptr, ptr, ptr, ptr, ptr, ptr, ptr, ptr, ptr, ptr, ptr, ptr, ptr, ptr, ptr, ptr, ptr, ptr, ptr, ptr, ptr, ptr, ptr, ptr, ptr, ptr, ptr, ptr, ptr, ptr, ptr, ptr, ptr, ptr, ptr, ptr, ptr, ptr, ptr, ptr, ptr, ptr, ptr, ptr, ptr, ptr, ptr, ptr, ptr, ptr, ptr, ptr, ptr, ptr, ptr, ptr, ptr, ptr, ptr, ptr, ptr, ptr, ptr, ptr, ptr, ptr, ptr, ptr, ptr, ptr, ptr, ptr, ptr, ptr, ptr, ptr, ptr, ptr, ptr, ptr, ptr, ptr, ptr, ptr, ptr, ptr, ptr, ptr, ptr, ptr, ptr, ptr, ptr, ptr, ptr, ptr, ptr, ptr, ptr, ptr, ptr, ptr, ptr, ptr, ptr, ptr, ptr, ptr, ptr, ptr, ptr, ptr, ptr, ptr, ptr, ptr, ptr, ptr, ptr, ptr, ptr, ptr, ptr, ptr, ptr, ptr, ptr, ptr, ptr, ptr, ptr, ptr, ptr, ptr, ptr, ptr, ptr, ptr, ptr, ptr, ptr, ptr, ptr, ptr, ptr, ptr, ptr, ptr, ptr, ptr, ptr, ptr, ptr, ptr, ptr, ptr, ptr, ptr, ptr, ptr, ptr, ptr, ptr, ptr, ptr, ptr, ptr, ptr, ptr, ptr, ptr, ptr, ptr, ptr, ptr, ptr, ptr, ptr, ptr, ptr, ptr, ptr, ptr, ptr, ptr, ptr, ptr, ptr, ptr, ptr, ptr, ptr, ptr, ptr, ptr, ptr, ptr, ptr, ptr, ptr, ptr, ptr, ptr, ptr, ptr, ptr, ptr, ptr, ptr, ptr, ptr, ptr, ptr, ptr, ptr, ptr, ptr, ptr, ptr, ptr, ptr, ptr, ptr, ptr, ptr, ptr, ptr, ptr, ptr, ptr, ptr, ptr, ptr, ptr, ptr, ptr, ptr, ptr, ptr, ptr, ptr, ptr, ptr, ptr, ptr, ptr, ptr, ptr, ptr, ptr, ptr, ptr, ptr, ptr, ptr, ptr, ptr, ptr, ptr, ptr, ptr, ptr, ptr, ptr, ptr, ptr, ptr, ptr, ptr, ptr, ptr, ptr, ptr, ptr, ptr, ptr, ptr, ptr, ptr, ptr, ptr, ptr, ptr, ptr, ptr, ptr, ptr, ptr, ptr, ptr, ptr, ptr, ptr, ptr, ptr, ptr, ptr, ptr, ptr, ptr, ptr, ptr, ptr, ptr, ptr, ptr, ptr, ptr, ptr, ptr, ptr, ptr, ptr, ptr, ptr, ptr, ptr, ptr, ptr, ptr, ptr, ptr, ptr, ptr, ptr, ptr, ptr, ptr, ptr, ptr, ptr, ptr, ptr, ptr, ptr, ptr, ptr, ptr, ptr, ptr, ptr, ptr, ptr, ptr, ptr, ptr, ptr, ptr, ptr, ptr, ptr, ptr, ptr, ptr, ptr, ptr, ptr, ptr, ptr, ptr, ptr, ptr, ptr, ptr, ptr, ptr, ptr, ptr, ptr, ptr, ptr, ptr, ptr, ptr, ptr, ptr, ptr, ptr, ptr, ptr, ptr, ptr, ptr, ptr, ptr, ptr, ptr, ptr, ptr, ptr, ptr, ptr, ptr, ptr, ptr, ptr, ptr, ptr }
%struct.SqliteDb = type { ptr, ptr, ptr, ptr, ptr, ptr, ptr, ptr, ptr, ptr, i32, ptr, ptr, ptr, ptr, ptr, ptr, ptr, ptr, i32, ptr, ptr, ptr, i32, i32, ptr, i32, i32, i32, i32, i32, i32, i32 }
%struct.DbEvalContext = type { ptr, ptr, ptr, ptr, i32, i32, ptr, ptr }
%struct.Tcl_Obj = type { i32, ptr, i32, ptr, %union.anon }
%union.anon = type { %struct.anon }
%struct.anon = type { ptr, ptr }

@tclStubsPtr = external global ptr, align 8

; Function Attrs: nounwind uwtable
define internal void @addDatabaseRef(ptr noundef %0) #0 {
  %2 = alloca ptr, align 8
  store ptr %0, ptr %2, align 8, !tbaa !30
  %3 = load ptr, ptr %2, align 8, !tbaa !30
  %4 = getelementptr inbounds nuw %struct.SqliteDb, ptr %3, i32 0, i32 32
  %5 = load i32, ptr %4, align 8, !tbaa !47
  %6 = add nsw i32 %5, 1
  store i32 %6, ptr %4, align 8, !tbaa !47
  ret void
}

; Function Attrs: nounwind uwtable
define internal void @dbEvalInit(ptr noundef %0, ptr noundef %1, ptr noundef %2, ptr noundef %3, i32 noundef %4) #0 {
  %6 = alloca ptr, align 8
  %7 = alloca ptr, align 8
  %8 = alloca ptr, align 8
  %9 = alloca ptr, align 8
  %10 = alloca i32, align 4
  store ptr %0, ptr %6, align 8, !tbaa !107
  store ptr %1, ptr %7, align 8, !tbaa !30
  store ptr %2, ptr %8, align 8, !tbaa !21
  store ptr %3, ptr %9, align 8, !tbaa !21
  store i32 %4, ptr %10, align 4, !tbaa !8
  %11 = load ptr, ptr %6, align 8, !tbaa !107
  call void @llvm.memset.p0.i64(ptr align 8 %11, i8 0, i64 56, i1 false)
  %12 = load ptr, ptr %7, align 8, !tbaa !30
  %13 = load ptr, ptr %6, align 8, !tbaa !107
  %14 = getelementptr inbounds nuw %struct.DbEvalContext, ptr %13, i32 0, i32 0
  store ptr %12, ptr %14, align 8, !tbaa !153
  %15 = load ptr, ptr @tclStubsPtr, align 8, !tbaa !10
  %16 = getelementptr inbounds nuw %struct.TclStubs, ptr %15, i32 0, i32 342
  %17 = load ptr, ptr %16, align 8, !tbaa !25
  %18 = load ptr, ptr %8, align 8, !tbaa !21
  %19 = call ptr %17(ptr noundef %18)
  %20 = load ptr, ptr %6, align 8, !tbaa !107
  %21 = getelementptr inbounds nuw %struct.DbEvalContext, ptr %20, i32 0, i32 2
  store ptr %19, ptr %21, align 8, !tbaa !155
  %22 = load ptr, ptr %8, align 8, !tbaa !21
  %23 = load ptr, ptr %6, align 8, !tbaa !107
  %24 = getelementptr inbounds nuw %struct.DbEvalContext, ptr %23, i32 0, i32 1
  store ptr %22, ptr %24, align 8, !tbaa !156
  %25 = load ptr, ptr %8, align 8, !tbaa !21
  %26 = getelementptr inbounds nuw %struct.Tcl_Obj, ptr %25, i32 0, i32 0
  %27 = load i32, ptr %26, align 8, !tbaa !70
  %28 = add nsw i32 %27, 1
  store i32 %28, ptr %26, align 8, !tbaa !70
  %29 = load ptr, ptr %9, align 8, !tbaa !21
  %30 = icmp ne ptr %29, null
  br i1 %30, label %31, label %39

31:                                               ; preds = %5
  %32 = load ptr, ptr %9, align 8, !tbaa !21
  %33 = load ptr, ptr %6, align 8, !tbaa !107
  %34 = getelementptr inbounds nuw %struct.DbEvalContext, ptr %33, i32 0, i32 6
  store ptr %32, ptr %34, align 8, !tbaa !157
  %35 = load ptr, ptr %9, align 8, !tbaa !21
  %36 = getelementptr inbounds nuw %struct.Tcl_Obj, ptr %35, i32 0, i32 0
  %37 = load i32, ptr %36, align 8, !tbaa !70
  %38 = add nsw i32 %37, 1
  store i32 %38, ptr %36, align 8, !tbaa !70
  br label %39

39:                                               ; preds = %31, %5
  %40 = load i32, ptr %10, align 4, !tbaa !8
  %41 = load ptr, ptr %6, align 8, !tbaa !107
  %42 = getelementptr inbounds nuw %struct.DbEvalContext, ptr %41, i32 0, i32 5
  store i32 %40, ptr %42, align 4, !tbaa !158
  %43 = load ptr, ptr %6, align 8, !tbaa !107
  %44 = getelementptr inbounds nuw %struct.DbEvalContext, ptr %43, i32 0, i32 0
  %45 = load ptr, ptr %44, align 8, !tbaa !153
  call void @addDatabaseRef(ptr noundef %45)
  ret void
}