; Function Attrs: nounwind uwtable
define internal fastcc void @dbEvalInit(ptr noundef captures(none) initializes((0, 56)) %0, ptr noundef %1, ptr noundef %2, ptr noundef %3, i32 noundef range(i32 0, 2) %4) unnamed_addr #0 {
  %6 = getelementptr inbounds nuw i8, ptr %0, i64 8
  tail call void @llvm.memset.p0.i64(ptr noundef nonnull align 8 dereferenceable(56) %6, i8 0, i64 48, i1 false)
  store ptr %1, ptr %0, align 8, !tbaa !90
  %7 = load ptr, ptr @tclStubsPtr, align 8, !tbaa !3
  %8 = getelementptr inbounds nuw i8, ptr %7, i64 2736
  %9 = load ptr, ptr %8, align 8, !tbaa !19
  %10 = tail call ptr %9(ptr noundef %2) #14
  %11 = getelementptr inbounds nuw i8, ptr %0, i64 16
  store ptr %10, ptr %11, align 8, !tbaa !94
  %12 = getelementptr inbounds nuw i8, ptr %0, i64 8
  store ptr %2, ptr %12, align 8, !tbaa !95
  %13 = load i32, ptr %2, align 8, !tbaa !61
  %14 = add nsw i32 %13, 1
  store i32 %14, ptr %2, align 8, !tbaa !61
  %.not = icmp eq ptr %3, null
  br i1 %.not, label %19, label %15

15:                                               ; preds = %5
  %16 = getelementptr inbounds nuw i8, ptr %0, i64 40
  store ptr %3, ptr %16, align 8, !tbaa !138
  %17 = load i32, ptr %3, align 8, !tbaa !61
  %18 = add nsw i32 %17, 1
  store i32 %18, ptr %3, align 8, !tbaa !61
  br label %19

19:                                               ; preds = %15, %5
  %20 = getelementptr inbounds nuw i8, ptr %0, i64 36
  store i32 %4, ptr %20, align 4, !tbaa !96
  %21 = load ptr, ptr %0, align 8, !tbaa !90
  %22 = getelementptr inbounds nuw i8, ptr %21, i64 224
  %23 = load i32, ptr %22, align 8, !tbaa !42
  %24 = add nsw i32 %23, 1
  store i32 %24, ptr %22, align 8, !tbaa !42
  ret void
}